target datalayout = "e-m:e-p270:32:32-p271:32:32-p272:64:64-i64:64-i128:128-f80:128-n8:16:32:64-S128"
target triple = "x86_64-pc-linux-gnu"

@.str.8 = private unnamed_addr constant [2 x i8] c"\0A\00", align 1
@.str.9 = private unnamed_addr constant [40 x i8] c"Usage: capinfos [options] <infile> ...\0A\00", align 1
@.str.10 = private unnamed_addr constant [16 x i8] c"General infos:\0A\00", align 1
@.str.11 = private unnamed_addr constant [36 x i8] c"  -t display the capture file type\0A\00", align 1
@.str.12 = private unnamed_addr constant [45 x i8] c"  -E display the capture file encapsulation\0A\00", align 1
@.str.13 = private unnamed_addr constant [53 x i8] c"  -I display the capture file interface information\0A\00", align 1
@.str.14 = private unnamed_addr constant [50 x i8] c"  -F display additional capture file information\0A\00", align 1
@.str.15 = private unnamed_addr constant [53 x i8] c"  -H display the SHA256 and SHA1 hashes of the file\0A\00", align 1
@.str.16 = private unnamed_addr constant [34 x i8] c"  -k display the capture comment\0A\00", align 1
@.str.17 = private unnamed_addr constant [41 x i8] c"  -p display individual packet comments\0A\00", align 1
@.str.18 = private unnamed_addr constant [13 x i8] c"Size infos:\0A\00", align 1
@.str.19 = private unnamed_addr constant [36 x i8] c"  -c display the number of packets\0A\00", align 1
@.str.20 = private unnamed_addr constant [46 x i8] c"  -s display the size of the file (in bytes)\0A\00", align 1
@.str.21 = private unnamed_addr constant [57 x i8] c"  -d display the total length of all packets (in bytes)\0A\00", align 1
@.str.22 = private unnamed_addr constant [54 x i8] c"  -l display the packet size limit (snapshot length)\0A\00", align 1
@.str.23 = private unnamed_addr constant [13 x i8] c"Time infos:\0A\00", align 1
@.str.24 = private unnamed_addr constant [48 x i8] c"  -u display the capture duration (in seconds)\0A\00", align 1
@.str.25 = private unnamed_addr constant [51 x i8] c"  -a display the timestamp of the earliest packet\0A\00", align 1
@.str.26 = private unnamed_addr constant [49 x i8] c"  -e display the timestamp of the latest packet\0A\00", align 1
@.str.27 = private unnamed_addr constant [65 x i8] c"  -o display the capture file chronological status (True/False)\0A\00", align 1
@.str.28 = private unnamed_addr constant [63 x i8] c"  -S display earliest and latest packet timestamps as seconds\0A\00", align 1
@.str.29 = private unnamed_addr constant [18 x i8] c"Statistic infos:\0A\00", align 1
@.str.30 = private unnamed_addr constant [47 x i8] c"  -y display average data rate (in bytes/sec)\0A\00", align 1
@.str.31 = private unnamed_addr constant [46 x i8] c"  -i display average data rate (in bits/sec)\0A\00", align 1
@.str.32 = private unnamed_addr constant [45 x i8] c"  -z display average packet size (in bytes)\0A\00", align 1
@.str.33 = private unnamed_addr constant [51 x i8] c"  -x display average packet rate (in packets/sec)\0A\00", align 1
@.str.34 = private unnamed_addr constant [17 x i8] c"Metadata infos:\0A\00", align 1
@.str.35 = private unnamed_addr constant [57 x i8] c"  -n display number of resolved IPv4 and IPv6 addresses\0A\00", align 1
@.str.36 = private unnamed_addr constant [43 x i8] c"  -D display number of decryption secrets\0A\00", align 1
@.str.37 = private unnamed_addr constant [16 x i8] c"Output format:\0A\00", align 1
@.str.38 = private unnamed_addr constant [37 x i8] c"  -L generate long report (default)\0A\00", align 1
@.str.39 = private unnamed_addr constant [28 x i8] c"  -T generate table report\0A\00", align 1
@.str.40 = private unnamed_addr constant [54 x i8] c"  -M display machine-readable values in long reports\0A\00", align 1
@.str.41 = private unnamed_addr constant [23 x i8] c"Table report options:\0A\00", align 1
@.str.42 = private unnamed_addr constant [39 x i8] c"  -R generate header record (default)\0A\00", align 1
@.str.43 = private unnamed_addr constant [36 x i8] c"  -r do not generate header record\0A\00", align 1
@.str.44 = private unnamed_addr constant [50 x i8] c"  -B separate infos with TAB character (default)\0A\00", align 1
@.str.45 = private unnamed_addr constant [46 x i8] c"  -m separate infos with comma (,) character\0A\00", align 1
@.str.46 = private unnamed_addr constant [42 x i8] c"  -b separate infos with SPACE character\0A\00", align 1
@.str.47 = private unnamed_addr constant [35 x i8] c"  -N do not quote infos (default)\0A\00", align 1
@.str.48 = private unnamed_addr constant [41 x i8] c"  -q quote infos with single quotes (')\0A\00", align 1
@.str.49 = private unnamed_addr constant [41 x i8] c"  -Q quote infos with double quotes (\22)\0A\00", align 1
@.str.50 = private unnamed_addr constant [16 x i8] c"Miscellaneous:\0A\00", align 1
@.str.51 = private unnamed_addr constant [55 x i8] c"  -h, --help               display this help and exit\0A\00", align 1
@.str.52 = private unnamed_addr constant [58 x i8] c"  -v, --version            display version info and exit\0A\00", align 1
@.str.53 = private unnamed_addr constant [68 x i8] c"  -C cancel processing if file open fails (default is to continue)\0A\00", align 1
@.str.54 = private unnamed_addr constant [35 x i8] c"  -A generate all infos (default)\0A\00", align 1
@.str.55 = private unnamed_addr constant [45 x i8] c"  -K disable displaying the capture comment\0A\00", align 1
@.str.56 = private unnamed_addr constant [52 x i8] c"  -P disable displaying individual packet comments\0A\00", align 1
@.str.57 = private unnamed_addr constant [79 x i8] c"Options are processed from left to right order with later options superseding\0A\00", align 1
@.str.58 = private unnamed_addr constant [31 x i8] c"or adding to earlier options.\0A\00", align 1
@.str.59 = private unnamed_addr constant [76 x i8] c"If no options are given the default is to display all infos in long report\0A\00", align 1
@.str.60 = private unnamed_addr constant [16 x i8] c"output format.\0A\00", align 1

; Function Attrs: null_pointer_is_valid sspstrong uwtable
define internal void @print_usage(ptr noundef %0) #0 {
  %2 = alloca ptr, align 8
  store ptr %0, ptr %2, align 8
  %3 = load ptr, ptr %2, align 8
  %4 = call i32 (ptr, i32, ptr, ...) @__fprintf_chk(ptr noundef %3, i32 noundef 2, ptr noundef @.str.8)
  %5 = load ptr, ptr %2, align 8
  %6 = call i32 (ptr, i32, ptr, ...) @__fprintf_chk(ptr noundef %5, i32 noundef 2, ptr noundef @.str.9)
  %7 = load ptr, ptr %2, align 8
  %8 = call i32 (ptr, i32, ptr, ...) @__fprintf_chk(ptr noundef %7, i32 noundef 2, ptr noundef @.str.8)
  %9 = load ptr, ptr %2, align 8
  %10 = call i32 (ptr, i32, ptr, ...) @__fprintf_chk(ptr noundef %9, i32 noundef 2, ptr noundef @.str.10)
  %11 = load ptr, ptr %2, align 8
  %12 = call i32 (ptr, i32, ptr, ...) @__fprintf_chk(ptr noundef %11, i32 noundef 2, ptr noundef @.str.11)
  %13 = load ptr, ptr %2, align 8
  %14 = call i32 (ptr, i32, ptr, ...) @__fprintf_chk(ptr noundef %13, i32 noundef 2, ptr noundef @.str.12)
  %15 = load ptr, ptr %2, align 8
  %16 = call i32 (ptr, i32, ptr, ...) @__fprintf_chk(ptr noundef %15, i32 noundef 2, ptr noundef @.str.13)
  %17 = load ptr, ptr %2, align 8
  %18 = call i32 (ptr, i32, ptr, ...) @__fprintf_chk(ptr noundef %17, i32 noundef 2, ptr noundef @.str.14)
  %19 = load ptr, ptr %2, align 8
  %20 = call i32 (ptr, i32, ptr, ...) @__fprintf_chk(ptr noundef %19, i32 noundef 2, ptr noundef @.str.15)
  %21 = load ptr, ptr %2, align 8
  %22 = call i32 (ptr, i32, ptr, ...) @__fprintf_chk(ptr noundef %21, i32 noundef 2, ptr noundef @.str.16)
  %23 = load ptr, ptr %2, align 8
  %24 = call i32 (ptr, i32, ptr, ...) @__fprintf_chk(ptr noundef %23, i32 noundef 2, ptr noundef @.str.17)
  %25 = load ptr, ptr %2, align 8
  %26 = call i32 (ptr, i32, ptr, ...) @__fprintf_chk(ptr noundef %25, i32 noundef 2, ptr noundef @.str.8)
  %27 = load ptr, ptr %2, align 8
  %28 = call i32 (ptr, i32, ptr, ...) @__fprintf_chk(ptr noundef %27, i32 noundef 2, ptr noundef @.str.18)
  %29 = load ptr, ptr %2, align 8
  %30 = call i32 (ptr, i32, ptr, ...) @__fprintf_chk(ptr noundef %29, i32 noundef 2, ptr noundef @.str.19)
  %31 = load ptr, ptr %2, align 8
  %32 = call i32 (ptr, i32, ptr, ...) @__fprintf_chk(ptr noundef %31, i32 noundef 2, ptr noundef @.str.20)
  %33 = load ptr, ptr %2, align 8
  %34 = call i32 (ptr, i32, ptr, ...) @__fprintf_chk(ptr noundef %33, i32 noundef 2, ptr noundef @.str.21)
  %35 = load ptr, ptr %2, align 8
  %36 = call i32 (ptr, i32, ptr, ...) @__fprintf_chk(ptr noundef %35, i32 noundef 2, ptr noundef @.str.22)
  %37 = load ptr, ptr %2, align 8
  %38 = call i32 (ptr, i32, ptr, ...) @__fprintf_chk(ptr noundef %37, i32 noundef 2, ptr noundef @.str.8)
  %39 = load ptr, ptr %2, align 8
  %40 = call i32 (ptr, i32, ptr, ...) @__fprintf_chk(ptr noundef %39, i32 noundef 2, ptr noundef @.str.23)
  %41 = load ptr, ptr %2, align 8
  %42 = call i32 (ptr, i32, ptr, ...) @__fprintf_chk(ptr noundef %41, i32 noundef 2, ptr noundef @.str.24)
  %43 = load ptr, ptr %2, align 8
  %44 = call i32 (ptr, i32, ptr, ...) @__fprintf_chk(ptr noundef %43, i32 noundef 2, ptr noundef @.str.25)
  %45 = load ptr, ptr %2, align 8
  %46 = call i32 (ptr, i32, ptr, ...) @__fprintf_chk(ptr noundef %45, i32 noundef 2, ptr noundef @.str.26)
  %47 = load ptr, ptr %2, align 8
  %48 = call i32 (ptr, i32, ptr, ...) @__fprintf_chk(ptr noundef %47, i32 noundef 2, ptr noundef @.str.27)
  %49 = load ptr, ptr %2, align 8
  %50 = call i32 (ptr, i32, ptr, ...) @__fprintf_chk(ptr noundef %49, i32 noundef 2, ptr noundef @.str.28)
  %51 = load ptr, ptr %2, align 8
  %52 = call i32 (ptr, i32, ptr, ...) @__fprintf_chk(ptr noundef %51, i32 noundef 2, ptr noundef @.str.8)
  %53 = load ptr, ptr %2, align 8
  %54 = call i32 (ptr, i32, ptr, ...) @__fprintf_chk(ptr noundef %53, i32 noundef 2, ptr noundef @.str.29)
  %55 = load ptr, ptr %2, align 8
  %56 = call i32 (ptr, i32, ptr, ...) @__fprintf_chk(ptr noundef %55, i32 noundef 2, ptr noundef @.str.30)
  %57 = load ptr, ptr %2, align 8
  %58 = call i32 (ptr, i32, ptr, ...) @__fprintf_chk(ptr noundef %57, i32 noundef 2, ptr noundef @.str.31)
  %59 = load ptr, ptr %2, align 8
  %60 = call i32 (ptr, i32, ptr, ...) @__fprintf_chk(ptr noundef %59, i32 noundef 2, ptr noundef @.str.32)
  %61 = load ptr, ptr %2, align 8
  %62 = call i32 (ptr, i32, ptr, ...) @__fprintf_chk(ptr noundef %61, i32 noundef 2, ptr noundef @.str.33)
  %63 = load ptr, ptr %2, align 8
  %64 = call i32 (ptr, i32, ptr, ...) @__fprintf_chk(ptr noundef %63, i32 noundef 2, ptr noundef @.str.8)
  %65 = load ptr, ptr %2, align 8
  %66 = call i32 (ptr, i32, ptr, ...) @__fprintf_chk(ptr noundef %65, i32 noundef 2, ptr noundef @.str.34)
  %67 = load ptr, ptr %2, align 8
  %68 = call i32 (ptr, i32, ptr, ...) @__fprintf_chk(ptr noundef %67, i32 noundef 2, ptr noundef @.str.35)
  %69 = load ptr, ptr %2, align 8
  %70 = call i32 (ptr, i32, ptr, ...) @__fprintf_chk(ptr noundef %69, i32 noundef 2, ptr noundef @.str.36)
  %71 = load ptr, ptr %2, align 8
  %72 = call i32 (ptr, i32, ptr, ...) @__fprintf_chk(ptr noundef %71, i32 noundef 2, ptr noundef @.str.8)
  %73 = load ptr, ptr %2, align 8
  %74 = call i32 (ptr, i32, ptr, ...) @__fprintf_chk(ptr noundef %73, i32 noundef 2, ptr noundef @.str.37)
  %75 = load ptr, ptr %2, align 8
  %76 = call i32 (ptr, i32, ptr, ...) @__fprintf_chk(ptr noundef %75, i32 noundef 2, ptr noundef @.str.38)
  %77 = load ptr, ptr %2, align 8
  %78 = call i32 (ptr, i32, ptr, ...) @__fprintf_chk(ptr noundef %77, i32 noundef 2, ptr noundef @.str.39)
  %79 = load ptr, ptr %2, align 8
  %80 = call i32 (ptr, i32, ptr, ...) @__fprintf_chk(ptr noundef %79, i32 noundef 2, ptr noundef @.str.40)
  %81 = load ptr, ptr %2, align 8
  %82 = call i32 (ptr, i32, ptr, ...) @__fprintf_chk(ptr noundef %81, i32 noundef 2, ptr noundef @.str.8)
  %83 = load ptr, ptr %2, align 8
  %84 = call i32 (ptr, i32, ptr, ...) @__fprintf_chk(ptr noundef %83, i32 noundef 2, ptr noundef @.str.41)
  %85 = load ptr, ptr %2, align 8
  %86 = call i32 (ptr, i32, ptr, ...) @__fprintf_chk(ptr noundef %85, i32 noundef 2, ptr noundef @.str.42)
  %87 = load ptr, ptr %2, align 8
  %88 = call i32 (ptr, i32, ptr, ...) @__fprintf_chk(ptr noundef %87, i32 noundef 2, ptr noundef @.str.43)
  %89 = load ptr, ptr %2, align 8
  %90 = call i32 (ptr, i32, ptr, ...) @__fprintf_chk(ptr noundef %89, i32 noundef 2, ptr noundef @.str.8)
  %91 = load ptr, ptr %2, align 8
  %92 = call i32 (ptr, i32, ptr, ...) @__fprintf_chk(ptr noundef %91, i32 noundef 2, ptr noundef @.str.44)
  %93 = load ptr, ptr %2, align 8
  %94 = call i32 (ptr, i32, ptr, ...) @__fprintf_chk(ptr noundef %93, i32 noundef 2, ptr noundef @.str.45)
  %95 = load ptr, ptr %2, align 8
  %96 = call i32 (ptr, i32, ptr, ...) @__fprintf_chk(ptr noundef %95, i32 noundef 2, ptr noundef @.str.46)
  %97 = load ptr, ptr %2, align 8
  %98 = call i32 (ptr, i32, ptr, ...) @__fprintf_chk(ptr noundef %97, i32 noundef 2, ptr noundef @.str.8)
  %99 = load ptr, ptr %2, align 8
  %100 = call i32 (ptr, i32, ptr, ...) @__fprintf_chk(ptr noundef %99, i32 noundef 2, ptr noundef @.str.47)
  %101 = load ptr, ptr %2, align 8
  %102 = call i32 (ptr, i32, ptr, ...) @__fprintf_chk(ptr noundef %101, i32 noundef 2, ptr noundef @.str.48)
  %103 = load ptr, ptr %2, align 8
  %104 = call i32 (ptr, i32, ptr, ...) @__fprintf_chk(ptr noundef %103, i32 noundef 2, ptr noundef @.str.49)
  %105 = load ptr, ptr %2, align 8
  %106 = call i32 (ptr, i32, ptr, ...) @__fprintf_chk(ptr noundef %105, i32 noundef 2, ptr noundef @.str.8)
  %107 = load ptr, ptr %2, align 8
  %108 = call i32 (ptr, i32, ptr, ...) @__fprintf_chk(ptr noundef %107, i32 noundef 2, ptr noundef @.str.50)
  %109 = load ptr, ptr %2, align 8
  %110 = call i32 (ptr, i32, ptr, ...) @__fprintf_chk(ptr noundef %109, i32 noundef 2, ptr noundef @.str.51)
  %111 = load ptr, ptr %2, align 8
  %112 = call i32 (ptr, i32, ptr, ...) @__fprintf_chk(ptr noundef %111, i32 noundef 2, ptr noundef @.str.52)
  %113 = load ptr, ptr %2, align 8
  %114 = call i32 (ptr, i32, ptr, ...) @__fprintf_chk(ptr noundef %113, i32 noundef 2, ptr noundef @.str.53)
  %115 = load ptr, ptr %2, align 8
  %116 = call i32 (ptr, i32, ptr, ...) @__fprintf_chk(ptr noundef %115, i32 noundef 2, ptr noundef @.str.54)
  %117 = load ptr, ptr %2, align 8
  %118 = call i32 (ptr, i32, ptr, ...) @__fprintf_chk(ptr noundef %117, i32 noundef 2, ptr noundef @.str.55)
  %119 = load ptr, ptr %2, align 8
  %120 = call i32 (ptr, i32, ptr, ...) @__fprintf_chk(ptr noundef %119, i32 noundef 2, ptr noundef @.str.56)
  %121 = load ptr, ptr %2, align 8
  %122 = call i32 (ptr, i32, ptr, ...) @__fprintf_chk(ptr noundef %121, i32 noundef 2, ptr noundef @.str.8)
  %123 = load ptr, ptr %2, align 8
  %124 = call i32 (ptr, i32, ptr, ...) @__fprintf_chk(ptr noundef %123, i32 noundef 2, ptr noundef @.str.57)
  %125 = load ptr, ptr %2, align 8
  %126 = call i32 (ptr, i32, ptr, ...) @__fprintf_chk(ptr noundef %125, i32 noundef 2, ptr noundef @.str.58)
  %127 = load ptr, ptr %2, align 8
  %128 = call i32 (ptr, i32, ptr, ...) @__fprintf_chk(ptr noundef %127, i32 noundef 2, ptr noundef @.str.8)
  %129 = load ptr, ptr %2, align 8
  %130 = call i32 (ptr, i32, ptr, ...) @__fprintf_chk(ptr noundef %129, i32 noundef 2, ptr noundef @.str.59)
  %131 = load ptr, ptr %2, align 8
  %132 = call i32 (ptr, i32, ptr, ...) @__fprintf_chk(ptr noundef %131, i32 noundef 2, ptr noundef @.str.60)
  ret void
}